target datalayout = "e-m:e-p270:32:32-p271:32:32-p272:64:64-i64:64-i128:128-f80:128-n8:16:32:64-S128"
target triple = "x86_64-unknown-linux-gnu"

%class.svector.13 = type { %class.vector.14 }
%class.vector.14 = type { ptr }
%"class.smt::theory_bv" = type { %"class.smt::theory.base", %"struct.smt::theory_bv_stats", %class.bv_util, %class.arith_util, %class.bit_blaster, %class.trail_stack, %class.union_find, %class.vector.5, %class.ptr_vector.1, %class.svector, %class.vector.6, %class.ptr_vector.7, %class.ptr_vector, %class.map, %class.vector.9, [256 x i8], %class.svector.10, i32, %class.vector.12, [256 x i8], %class.svector, %class.svector, %class.svector.13, %class.svector.15, i8, [2 x %class.svector.17], ptr }
%"class.smt::theory.base" = type <{ ptr, i32, [4 x i8], ptr, ptr, %class.ptr_vector, %class.svector, i32, i8 }>
%"struct.smt::theory_bv_stats" = type { i32, i32, i32, i32, i32, i32 }
%class.bv_util = type { %class.bv_recognizers, ptr, ptr }
%class.bv_recognizers = type { i32 }
%class.arith_util = type { ptr, ptr }
%class.bit_blaster = type { %class.bit_blaster_tpl, %class.bv_util, %class.bool_rewriter }
%class.bit_blaster_tpl = type { %class.bit_blaster_cfg, i64 }
%class.bit_blaster_cfg = type { ptr, ptr, ptr }
%class.bool_rewriter = type { ptr, i8, i8, i8, i8, i8, i8, i32, i8, i32, i32, i8, %class.ptr_vector.1, %class.ptr_vector.1, %class.svector, %class.svector }
%class.trail_stack = type { %class.ptr_vector.3, %class.svector, %class.region }
%class.ptr_vector.3 = type { %class.vector.4 }
%class.vector.4 = type { ptr }
%class.region = type { ptr, ptr, ptr, ptr, ptr }
%class.union_find = type { ptr, ptr, %class.svector, %class.svector, %class.svector, %"class.union_find<smt::theory_bv>::mk_var_trail" }
%"class.union_find<smt::theory_bv>::mk_var_trail" = type { %class.trail, ptr }
%class.trail = type { ptr }
%class.vector.5 = type { ptr }
%class.ptr_vector.1 = type { %class.vector.2 }
%class.vector.2 = type { ptr }
%class.vector.6 = type { ptr }
%class.ptr_vector.7 = type { %class.vector.8 }
%class.vector.8 = type { ptr }
%class.ptr_vector = type { %class.vector }
%class.vector = type { ptr }
%class.map = type { %class.table2map }
%class.table2map = type { %class.core_hashtable }
%class.core_hashtable = type <{ %"struct.table2map<default_map_entry<std::pair<rational, unsigned int>, int>, pair_hash<obj_hash<rational>, unsigned_hash>, default_eq<std::pair<rational, unsigned int>>>::entry_hash_proc", [7 x i8], ptr, i32, i32, i32, [4 x i8] }>
%"struct.table2map<default_map_entry<std::pair<rational, unsigned int>, int>, pair_hash<obj_hash<rational>, unsigned_hash>, default_eq<std::pair<rational, unsigned int>>>::entry_hash_proc" = type { %struct.pair_hash }
%struct.pair_hash = type { %struct.unsigned_hash }
%struct.unsigned_hash = type { i8 }
%class.vector.9 = type { ptr }
%class.svector.10 = type { %class.vector.11 }
%class.vector.11 = type { ptr }
%class.vector.12 = type { ptr }
%class.svector = type { %class.vector.0 }
%class.vector.0 = type { ptr }
%class.svector.15 = type { %class.vector.16 }
%class.vector.16 = type { ptr }
%class.svector.17 = type { %class.vector.18 }
%class.vector.18 = type { ptr }

; Function Attrs: mustprogress nounwind uwtable
define linkonce_odr hidden noundef i32 @_ZNK6vectorIjLb0EjE4sizeEv(ptr noundef nonnull align 8 dereferenceable(8) %this) #4 comdat align 2 {
entry:
  %retval = alloca i32, align 4
  %this.addr = alloca ptr, align 8
  store ptr %this, ptr %this.addr, align 8
  %this1 = load ptr, ptr %this.addr, align 8
  %m_data = getelementptr inbounds %class.vector.0, ptr %this1, i32 0, i32 0
  %0 = load ptr, ptr %m_data, align 8
  %cmp = icmp eq ptr %0, null
  br i1 %cmp, label %if.then, label %if.end

if.then:                                          ; preds = %entry
  store i32 0, ptr %retval, align 4
  br label %return

if.end:                                           ; preds = %entry
  %m_data2 = getelementptr inbounds %class.vector.0, ptr %this1, i32 0, i32 0
  %1 = load ptr, ptr %m_data2, align 8
  %arrayidx = getelementptr inbounds i32, ptr %1, i64 -1
  %2 = load i32, ptr %arrayidx, align 4
  store i32 %2, ptr %retval, align 4
  br label %return

return:                                           ; preds = %if.end, %if.then
  %3 = load i32, ptr %retval, align 4
  ret i32 %3
}

; Function Attrs: mustprogress uwtable
define linkonce_odr hidden void @_ZN9table2mapI17default_map_entryISt4pairI8rationaljEiE9pair_hashI8obj_hashIS2_E13unsigned_hashE10default_eqIS3_EE5resetEv(ptr noundef nonnull align 8 dereferenceable(32) %this) #5 comdat align 2 {
entry:
  %this.addr = alloca ptr, align 8
  store ptr %this, ptr %this.addr, align 8
  %this1 = load ptr, ptr %this.addr, align 8
  %m_table = getelementptr inbounds %class.table2map, ptr %this1, i32 0, i32 0
  call void @_ZN14core_hashtableI17default_map_entryISt4pairI8rationaljEiEN9table2mapIS4_9pair_hashI8obj_hashIS2_E13unsigned_hashE10default_eqIS3_EE15entry_hash_procENSD_13entry_eq_procEE5resetEv(ptr noundef nonnull align 8 dereferenceable(28) %m_table)
  ret void
}

; Function Attrs: mustprogress nounwind uwtable
define linkonce_odr hidden void @_ZN6vectorIPN3smt9theory_bv4atomELb0EjE5resetEv(ptr noundef nonnull align 8 dereferenceable(8) %this) #4 comdat align 2 {
entry:
  %this.addr = alloca ptr, align 8
  store ptr %this, ptr %this.addr, align 8
  %this1 = load ptr, ptr %this.addr, align 8
  %m_data = getelementptr inbounds %class.vector.8, ptr %this1, i32 0, i32 0
  %0 = load ptr, ptr %m_data, align 8
  %tobool = icmp ne ptr %0, null
  br i1 %tobool, label %if.then, label %if.end

if.then:                                          ; preds = %entry
  %m_data2 = getelementptr inbounds %class.vector.8, ptr %this1, i32 0, i32 0
  %1 = load ptr, ptr %m_data2, align 8
  %arrayidx = getelementptr inbounds i32, ptr %1, i64 -1
  store i32 0, ptr %arrayidx, align 4
  br label %if.end

if.end:                                           ; preds = %if.then, %entry
  ret void
}

; Function Attrs: mustprogress uwtable
define linkonce_odr hidden noundef i32 @_ZNK11trail_stack14get_num_scopesEv(ptr noundef nonnull align 8 dereferenceable(56) %this) #5 comdat align 2 {
entry:
  %this.addr = alloca ptr, align 8
  store ptr %this, ptr %this.addr, align 8
  %this1 = load ptr, ptr %this.addr, align 8
  %m_scopes = getelementptr inbounds %class.trail_stack, ptr %this1, i32 0, i32 1
  %call = call noundef i32 @_ZNK6vectorIjLb0EjE4sizeEv(ptr noundef nonnull align 8 dereferenceable(8) %m_scopes)
  ret i32 %call
}

; Function Attrs: mustprogress uwtable
define hidden void @_ZN3smt9theory_bv8reset_ehEv(ptr noundef nonnull align 8 dereferenceable(1048) %this) unnamed_addr #5 align 2 {
entry:
  %this.addr = alloca ptr, align 8
  store ptr %this, ptr %this.addr, align 8
  %this1 = load ptr, ptr %this.addr, align 8
  %m_trail_stack = getelementptr inbounds %"class.smt::theory_bv", ptr %this1, i32 0, i32 5
  %call = call noundef i32 @_ZNK11trail_stack14get_num_scopesEv(ptr noundef nonnull align 8 dereferenceable(56) %m_trail_stack)
  %vtable = load ptr, ptr %this1, align 8
  %vfn = getelementptr inbounds ptr, ptr %vtable, i64 13
  %0 = load ptr, ptr %vfn, align 8
  call void %0(ptr noundef nonnull align 8 dereferenceable(1048) %this1, i32 noundef %call)
  %m_bool_var2atom = getelementptr inbounds %"class.smt::theory_bv", ptr %this1, i32 0, i32 11
  call void @_ZN6vectorIPN3smt9theory_bv4atomELb0EjE5resetEv(ptr noundef nonnull align 8 dereferenceable(8) %m_bool_var2atom)
  %m_fixed_var_table = getelementptr inbounds %"class.smt::theory_bv", ptr %this1, i32 0, i32 13
  call void @_ZN9table2mapI17default_map_entryISt4pairI8rationaljEiE9pair_hashI8obj_hashIS2_E13unsigned_hashE10default_eqIS3_EE5resetEv(ptr noundef nonnull align 8 dereferenceable(32) %m_fixed_var_table)
  call void @_ZN3smt6theory8reset_ehEv(ptr noundef nonnull align 8 dereferenceable(53) %this1)
  ret void
}