; Function Attrs: mustprogress uwtable
define hidden void @_ZN3smt9theory_bv8reset_ehEv(ptr noundef nonnull align 8 dereferenceable(1048) %this) unnamed_addr #3 align 2 {
entry:
  %m_scopes.i = getelementptr inbounds i8, ptr %this, i64 256
  %0 = load ptr, ptr %m_scopes.i, align 8
  %cmp.i.i = icmp eq ptr %0, null
  br i1 %cmp.i.i, label %_ZNK11trail_stack14get_num_scopesEv.exit, label %if.end.i.i

if.end.i.i:                                       ; preds = %entry
  %arrayidx.i.i = getelementptr inbounds i8, ptr %0, i64 -4
  %1 = load i32, ptr %arrayidx.i.i, align 4
  br label %_ZNK11trail_stack14get_num_scopesEv.exit

_ZNK11trail_stack14get_num_scopesEv.exit:         ; preds = %entry, %if.end.i.i
  %retval.0.i.i = phi i32 [ %1, %if.end.i.i ], [ 0, %entry ]
  %vtable = load ptr, ptr %this, align 8
  %vfn = getelementptr inbounds i8, ptr %vtable, i64 104
  %2 = load ptr, ptr %vfn, align 8
  tail call void %2(ptr noundef nonnull align 8 dereferenceable(1048) %this, i32 noundef %retval.0.i.i)
  %m_bool_var2atom = getelementptr inbounds i8, ptr %this, i64 392
  %3 = load ptr, ptr %m_bool_var2atom, align 8
  %tobool.not.i = icmp eq ptr %3, null
  br i1 %tobool.not.i, label %_ZN6vectorIPN3smt9theory_bv4atomELb0EjE5resetEv.exit, label %if.then.i

if.then.i:                                        ; preds = %_ZNK11trail_stack14get_num_scopesEv.exit
  %arrayidx.i = getelementptr inbounds i8, ptr %3, i64 -4
  store i32 0, ptr %arrayidx.i, align 4
  br label %_ZN6vectorIPN3smt9theory_bv4atomELb0EjE5resetEv.exit

_ZN6vectorIPN3smt9theory_bv4atomELb0EjE5resetEv.exit: ; preds = %_ZNK11trail_stack14get_num_scopesEv.exit, %if.then.i
  %m_fixed_var_table = getelementptr inbounds i8, ptr %this, i64 408
  tail call void @_ZN14core_hashtableI17default_map_entryISt4pairI8rationaljEiEN9table2mapIS4_9pair_hashI8obj_hashIS2_E13unsigned_hashE10default_eqIS3_EE15entry_hash_procENSD_13entry_eq_procEE5resetEv(ptr noundef nonnull align 8 dereferenceable(28) %m_fixed_var_table)
  tail call void @_ZN3smt6theory8reset_ehEv(ptr noundef nonnull align 8 dereferenceable(53) %this)
  ret void
}